target datalayout = "e-m:e-p270:32:32-p271:32:32-p272:64:64-i64:64-i128:128-f80:128-n8:16:32:64-S128"
target triple = "x86_64-pc-linux-gnu"

; Function Attrs: mustprogress nounwind uwtable
define dso_local noundef zeroext i8 @_ZN4llvm13BasicAAResult16getArgModRefInfoEPKNS_8CallBaseEj(ptr noundef nonnull align 8 dereferenceable(200) %0, ptr noundef %1, i32 noundef %2) #1 align 2 {
  %4 = alloca i8, align 1
  %5 = alloca ptr, align 8
  %6 = alloca ptr, align 8
  %7 = alloca i32, align 4
  store ptr %0, ptr %5, align 8
  store ptr %1, ptr %6, align 8
  store i32 %2, ptr %7, align 4
  %8 = load ptr, ptr %6, align 8
  %9 = load i32, ptr %7, align 4
  %10 = call noundef zeroext i1 @_ZNK4llvm8CallBase12paramHasAttrEjNS_9Attribute8AttrKindE(ptr noundef nonnull align 8 dereferenceable(88) %8, i32 noundef %9, i32 noundef 74)
  br i1 %10, label %11, label %12

11:                                               ; preds = %3
  store i8 2, ptr %4, align 1
  br label %23

12:                                               ; preds = %3
  %13 = load ptr, ptr %6, align 8
  %14 = load i32, ptr %7, align 4
  %15 = call noundef zeroext i1 @_ZNK4llvm8CallBase12paramHasAttrEjNS_9Attribute8AttrKindE(ptr noundef nonnull align 8 dereferenceable(88) %13, i32 noundef %14, i32 noundef 49)
  br i1 %15, label %16, label %17

16:                                               ; preds = %12
  store i8 1, ptr %4, align 1
  br label %23

17:                                               ; preds = %12
  %18 = load ptr, ptr %6, align 8
  %19 = load i32, ptr %7, align 4
  %20 = call noundef zeroext i1 @_ZNK4llvm8CallBase12paramHasAttrEjNS_9Attribute8AttrKindE(ptr noundef nonnull align 8 dereferenceable(88) %18, i32 noundef %19, i32 noundef 48)
  br i1 %20, label %21, label %22

21:                                               ; preds = %17
  store i8 0, ptr %4, align 1
  br label %23

22:                                               ; preds = %17
  store i8 3, ptr %4, align 1
  br label %23

23:                                               ; preds = %22, %21, %16, %11
  %24 = load i8, ptr %4, align 1
  ret i8 %24
}