; Function Attrs: mustprogress nounwind uwtable
define dso_local noundef zeroext range(i8 0, 4) i8 @_ZN4llvm13BasicAAResult16getArgModRefInfoEPKNS_8CallBaseEj(ptr nocapture noundef nonnull readnone align 8 dereferenceable(200) %0, ptr noundef nonnull %1, i32 noundef %2) local_unnamed_addr #0 align 2 {
  %4 = tail call noundef zeroext i1 @_ZNK4llvm8CallBase12paramHasAttrEjNS_9Attribute8AttrKindE(ptr noundef nonnull align 8 dereferenceable(88) %1, i32 noundef %2, i32 noundef 74) #22
  br i1 %4, label %9, label %5

5:                                                ; preds = %3
  %6 = tail call noundef zeroext i1 @_ZNK4llvm8CallBase12paramHasAttrEjNS_9Attribute8AttrKindE(ptr noundef nonnull align 8 dereferenceable(88) %1, i32 noundef %2, i32 noundef 49) #22
  br i1 %6, label %9, label %7

7:                                                ; preds = %5
  %8 = tail call noundef zeroext i1 @_ZNK4llvm8CallBase12paramHasAttrEjNS_9Attribute8AttrKindE(ptr noundef nonnull align 8 dereferenceable(88) %1, i32 noundef %2, i32 noundef 48) #22
  %. = select i1 %8, i8 0, i8 3
  br label %9

9:                                                ; preds = %7, %5, %3
  %.0 = phi i8 [ 2, %3 ], [ 1, %5 ], [ %., %7 ]
  ret i8 %.0
}